target datalayout = "e-m:e-p270:32:32-p271:32:32-p272:64:64-i64:64-i128:128-f80:128-n8:16:32:64-S128"
target triple = "x86_64-pc-linux-gnu"

%struct.gpg_format = type { ptr, ptr, ptr, ptr, ptr, ptr, ptr, ptr }
%struct.signature_check = type { ptr, i64, i32, i64, ptr, ptr, i8, ptr, ptr, ptr, ptr, i32 }
%struct.ident_split = type { ptr, ptr, ptr, ptr, ptr, ptr, ptr, ptr }

@.str = private unnamed_addr constant [32 x i8] c"bad/incompatible signature '%s'\00", align 1
@configured_min_trust_level = internal global i32 0, align 4
@.str.1 = private unnamed_addr constant [16 x i8] c"gpg-interface.c\00", align 1
@gpg_interface_lazy_init.done = internal global i32 0, align 4
@the_repository = external global ptr, align 8
@.str.93 = private unnamed_addr constant [10 x i8] c"committer\00", align 1
@.str.94 = private unnamed_addr constant [7 x i8] c"tagger\00", align 1
@.str.95 = private unnamed_addr constant [37 x i8] c"invalid value for sigc->payload_type\00", align 1

; Function Attrs: inlinehint nounwind uwtable
define internal void @git_config(ptr noundef %0, ptr noundef %1) #4 {
  %3 = alloca ptr, align 8
  %4 = alloca ptr, align 8
  store ptr %0, ptr %3, align 8, !tbaa !54
  store ptr %1, ptr %4, align 8, !tbaa !54
  %5 = load ptr, ptr @the_repository, align 8, !tbaa !55
  %6 = load ptr, ptr %3, align 8, !tbaa !54
  %7 = load ptr, ptr %4, align 8, !tbaa !54
  call void @repo_config(ptr noundef %5, ptr noundef %6, ptr noundef %7)
  ret void
}

; Function Attrs: nounwind uwtable
define internal i32 @parse_payload_metadata(ptr noundef %0) #0 {
  %2 = alloca i32, align 4
  %3 = alloca ptr, align 8
  %4 = alloca ptr, align 8
  %5 = alloca i64, align 8
  %6 = alloca %struct.ident_split, align 8
  %7 = alloca ptr, align 8
  %8 = alloca i32, align 4
  store ptr %0, ptr %3, align 8, !tbaa !4
  call void @llvm.lifetime.start.p0(i64 8, ptr %4) #8
  store ptr null, ptr %4, align 8, !tbaa !20
  call void @llvm.lifetime.start.p0(i64 8, ptr %5) #8
  call void @llvm.lifetime.start.p0(i64 64, ptr %6) #8
  call void @llvm.lifetime.start.p0(i64 8, ptr %7) #8
  %9 = load ptr, ptr %3, align 8, !tbaa !4
  %10 = getelementptr inbounds nuw %struct.signature_check, ptr %9, i32 0, i32 2
  %11 = load i32, ptr %10, align 8, !tbaa !35
  switch i32 %11, label %15 [
    i32 1, label %12
    i32 2, label %13
    i32 0, label %14
    i32 3, label %14
  ]

12:                                               ; preds = %1
  store ptr @.str.93, ptr %7, align 8, !tbaa !20
  br label %16

13:                                               ; preds = %1
  store ptr @.str.94, ptr %7, align 8, !tbaa !20
  br label %16

14:                                               ; preds = %1, %1
  store i32 0, ptr %2, align 4
  store i32 1, ptr %8, align 4
  br label %55

15:                                               ; preds = %1
  call void (ptr, i32, ptr, ...) @BUG_fl(ptr noundef @.str.1, i32 noundef 632, ptr noundef @.str.95) #9
  unreachable

16:                                               ; preds = %13, %12
  %17 = load ptr, ptr %3, align 8, !tbaa !4
  %18 = getelementptr inbounds nuw %struct.signature_check, ptr %17, i32 0, i32 0
  %19 = load ptr, ptr %18, align 8, !tbaa !9
  %20 = load ptr, ptr %7, align 8, !tbaa !20
  %21 = call ptr @find_commit_header(ptr noundef %19, ptr noundef %20, ptr noundef %5)
  store ptr %21, ptr %4, align 8, !tbaa !20
  %22 = load ptr, ptr %4, align 8, !tbaa !20
  %23 = icmp ne ptr %22, null
  br i1 %23, label %24, label %27

24:                                               ; preds = %16
  %25 = load i64, ptr %5, align 8, !tbaa !21
  %26 = icmp ne i64 %25, 0
  br i1 %26, label %28, label %27

27:                                               ; preds = %24, %16
  store i32 1, ptr %2, align 4
  store i32 1, ptr %8, align 4
  br label %55

28:                                               ; preds = %24
  %29 = load ptr, ptr %4, align 8, !tbaa !20
  %30 = load i64, ptr %5, align 8, !tbaa !21
  %31 = trunc i64 %30 to i32
  %32 = call i32 @split_ident_line(ptr noundef %6, ptr noundef %29, i32 noundef %31)
  %33 = icmp ne i32 %32, 0
  br i1 %33, label %34, label %35

34:                                               ; preds = %28
  store i32 1, ptr %2, align 4
  store i32 1, ptr %8, align 4
  br label %55

35:                                               ; preds = %28
  %36 = load ptr, ptr %3, align 8, !tbaa !4
  %37 = getelementptr inbounds nuw %struct.signature_check, ptr %36, i32 0, i32 3
  %38 = load i64, ptr %37, align 8, !tbaa !36
  %39 = icmp ne i64 %38, 0
  br i1 %39, label %54, label %40

40:                                               ; preds = %35
  %41 = getelementptr inbounds nuw %struct.ident_split, ptr %6, i32 0, i32 4
  %42 = load ptr, ptr %41, align 8, !tbaa !37
  %43 = icmp ne ptr %42, null
  br i1 %43, label %44, label %54

44:                                               ; preds = %40
  %45 = getelementptr inbounds nuw %struct.ident_split, ptr %6, i32 0, i32 5
  %46 = load ptr, ptr %45, align 8, !tbaa !39
  %47 = icmp ne ptr %46, null
  br i1 %47, label %48, label %54

48:                                               ; preds = %44
  %49 = getelementptr inbounds nuw %struct.ident_split, ptr %6, i32 0, i32 4
  %50 = load ptr, ptr %49, align 8, !tbaa !37
  %51 = call i64 @strtoumax(ptr noundef %50, ptr noundef null, i32 noundef 10) #8
  %52 = load ptr, ptr %3, align 8, !tbaa !4
  %53 = getelementptr inbounds nuw %struct.signature_check, ptr %52, i32 0, i32 3
  store i64 %51, ptr %53, align 8, !tbaa !36
  br label %54

54:                                               ; preds = %48, %44, %40, %35
  store i32 0, ptr %2, align 4
  store i32 1, ptr %8, align 4
  br label %55

55:                                               ; preds = %54, %34, %27, %14
  call void @llvm.lifetime.end.p0(i64 8, ptr %7) #8
  call void @llvm.lifetime.end.p0(i64 64, ptr %6) #8
  call void @llvm.lifetime.end.p0(i64 8, ptr %5) #8
  call void @llvm.lifetime.end.p0(i64 8, ptr %4) #8
  %56 = load i32, ptr %2, align 4
  ret i32 %56
}

; Function Attrs: nounwind uwtable
define internal ptr @get_format_by_sig(ptr noundef %0) #0 {
  %2 = alloca ptr, align 8
  %3 = alloca ptr, align 8
  %4 = alloca i32, align 4
  %5 = alloca i64, align 8
  %6 = alloca i32, align 4
  store ptr %0, ptr %3, align 8, !tbaa !20
  call void @llvm.lifetime.start.p0(i64 4, ptr %4) #8
  call void @llvm.lifetime.start.p0(i64 8, ptr %5) #8
  store i64 0, ptr %5, align 8, !tbaa !21
  br label %7

7:                                                ; preds = %42, %1
  %8 = load i64, ptr %5, align 8, !tbaa !21
  %9 = icmp ult i64 %8, 3
  br i1 %9, label %11, label %10

10:                                               ; preds = %7
  store i32 2, ptr %6, align 4
  br label %45

11:                                               ; preds = %7
  store i32 0, ptr %4, align 4, !tbaa !29
  br label %12

12:                                               ; preds = %38, %11
  %13 = load i64, ptr %5, align 8, !tbaa !21
  %14 = getelementptr inbounds nuw [3 x %struct.gpg_format], ptr @gpg_format, i64 0, i64 %13
  %15 = getelementptr inbounds nuw %struct.gpg_format, ptr %14, i32 0, i32 3
  %16 = load ptr, ptr %15, align 8, !tbaa !30
  %17 = load i32, ptr %4, align 4, !tbaa !29
  %18 = sext i32 %17 to i64
  %19 = getelementptr inbounds ptr, ptr %16, i64 %18
  %20 = load ptr, ptr %19, align 8, !tbaa !20
  %21 = icmp ne ptr %20, null
  br i1 %21, label %22, label %41

22:                                               ; preds = %12
  %23 = load ptr, ptr %3, align 8, !tbaa !20
  %24 = load i64, ptr %5, align 8, !tbaa !21
  %25 = getelementptr inbounds nuw [3 x %struct.gpg_format], ptr @gpg_format, i64 0, i64 %24
  %26 = getelementptr inbounds nuw %struct.gpg_format, ptr %25, i32 0, i32 3
  %27 = load ptr, ptr %26, align 8, !tbaa !30
  %28 = load i32, ptr %4, align 4, !tbaa !29
  %29 = sext i32 %28 to i64
  %30 = getelementptr inbounds ptr, ptr %27, i64 %29
  %31 = load ptr, ptr %30, align 8, !tbaa !20
  %32 = call i32 @starts_with(ptr noundef %23, ptr noundef %31)
  %33 = icmp ne i32 %32, 0
  br i1 %33, label %34, label %37

34:                                               ; preds = %22
  %35 = load i64, ptr %5, align 8, !tbaa !21
  %36 = getelementptr inbounds nuw %struct.gpg_format, ptr @gpg_format, i64 %35
  store ptr %36, ptr %2, align 8
  store i32 1, ptr %6, align 4
  br label %45

37:                                               ; preds = %22
  br label %38

38:                                               ; preds = %37
  %39 = load i32, ptr %4, align 4, !tbaa !29
  %40 = add nsw i32 %39, 1
  store i32 %40, ptr %4, align 4, !tbaa !29
  br label %12, !llvm.loop !31

41:                                               ; preds = %12
  br label %42

42:                                               ; preds = %41
  %43 = load i64, ptr %5, align 8, !tbaa !21
  %44 = add i64 %43, 1
  store i64 %44, ptr %5, align 8, !tbaa !21
  br label %7, !llvm.loop !33

45:                                               ; preds = %34, %10
  call void @llvm.lifetime.end.p0(i64 8, ptr %5) #8
  %46 = load i32, ptr %6, align 4
  switch i32 %46, label %48 [
    i32 2, label %47
  ]

47:                                               ; preds = %45
  store ptr null, ptr %2, align 8
  store i32 1, ptr %6, align 4
  br label %48

48:                                               ; preds = %47, %45
  call void @llvm.lifetime.end.p0(i64 4, ptr %4) #8
  %49 = load ptr, ptr %2, align 8
  ret ptr %49
}

; Function Attrs: nounwind uwtable
define internal void @gpg_interface_lazy_init() #0 {
  %1 = load i32, ptr @gpg_interface_lazy_init.done, align 4, !tbaa !29
  %2 = icmp ne i32 %1, 0
  br i1 %2, label %3, label %4

3:                                                ; preds = %0
  br label %5

4:                                                ; preds = %0
  store i32 1, ptr @gpg_interface_lazy_init.done, align 4, !tbaa !29
  call void @git_config(ptr noundef @git_gpg_config, ptr noundef null)
  br label %5

5:                                                ; preds = %4, %3
  ret void
}

; Function Attrs: nounwind uwtable
define dso_local i32 @check_signature(ptr noundef %0, ptr noundef %1, i64 noundef %2) #0 {
  %4 = alloca i32, align 4
  %5 = alloca ptr, align 8
  %6 = alloca ptr, align 8
  %7 = alloca i64, align 8
  %8 = alloca ptr, align 8
  %9 = alloca i32, align 4
  %10 = alloca i32, align 4
  store ptr %0, ptr %5, align 8, !tbaa !4
  store ptr %1, ptr %6, align 8, !tbaa !20
  store i64 %2, ptr %7, align 8, !tbaa !21
  call void @llvm.lifetime.start.p0(i64 8, ptr %8) #8
  call void @llvm.lifetime.start.p0(i64 4, ptr %9) #8
  call void @gpg_interface_lazy_init()
  %11 = load ptr, ptr %5, align 8, !tbaa !4
  %12 = getelementptr inbounds nuw %struct.signature_check, ptr %11, i32 0, i32 6
  store i8 78, ptr %12, align 8, !tbaa !22
  %13 = load ptr, ptr %5, align 8, !tbaa !4
  %14 = getelementptr inbounds nuw %struct.signature_check, ptr %13, i32 0, i32 11
  store i32 0, ptr %14, align 8, !tbaa !23
  %15 = load ptr, ptr %6, align 8, !tbaa !20
  %16 = call ptr @get_format_by_sig(ptr noundef %15)
  store ptr %16, ptr %8, align 8, !tbaa !24
  %17 = load ptr, ptr %8, align 8, !tbaa !24
  %18 = icmp ne ptr %17, null
  br i1 %18, label %22, label %19

19:                                               ; preds = %3
  %20 = call ptr @_(ptr noundef @.str)
  %21 = load ptr, ptr %6, align 8, !tbaa !20
  call void (ptr, ...) @die(ptr noundef %20, ptr noundef %21) #9
  unreachable

22:                                               ; preds = %3
  %23 = load ptr, ptr %5, align 8, !tbaa !4
  %24 = call i32 @parse_payload_metadata(ptr noundef %23)
  %25 = icmp ne i32 %24, 0
  br i1 %25, label %26, label %27

26:                                               ; preds = %22
  store i32 1, ptr %4, align 4
  store i32 1, ptr %10, align 4
  br label %71

27:                                               ; preds = %22
  %28 = load ptr, ptr %8, align 8, !tbaa !24
  %29 = getelementptr inbounds nuw %struct.gpg_format, ptr %28, i32 0, i32 4
  %30 = load ptr, ptr %29, align 8, !tbaa !26
  %31 = load ptr, ptr %5, align 8, !tbaa !4
  %32 = load ptr, ptr %8, align 8, !tbaa !24
  %33 = load ptr, ptr %6, align 8, !tbaa !20
  %34 = load i64, ptr %7, align 8, !tbaa !21
  %35 = call i32 %30(ptr noundef %31, ptr noundef %32, ptr noundef %33, i64 noundef %34)
  store i32 %35, ptr %9, align 4, !tbaa !29
  %36 = load i32, ptr %9, align 4, !tbaa !29
  %37 = icmp ne i32 %36, 0
  br i1 %37, label %38, label %49

38:                                               ; preds = %27
  %39 = load ptr, ptr %5, align 8, !tbaa !4
  %40 = getelementptr inbounds nuw %struct.signature_check, ptr %39, i32 0, i32 4
  %41 = load ptr, ptr %40, align 8, !tbaa !14
  %42 = icmp ne ptr %41, null
  br i1 %42, label %49, label %43

43:                                               ; preds = %38
  %44 = load i32, ptr %9, align 4, !tbaa !29
  %45 = icmp ne i32 %44, 0
  %46 = xor i1 %45, true
  %47 = xor i1 %46, true
  %48 = zext i1 %47 to i32
  store i32 %48, ptr %4, align 4
  store i32 1, ptr %10, align 4
  br label %71

49:                                               ; preds = %38, %27
  %50 = load ptr, ptr %5, align 8, !tbaa !4
  %51 = getelementptr inbounds nuw %struct.signature_check, ptr %50, i32 0, i32 6
  %52 = load i8, ptr %51, align 8, !tbaa !22
  %53 = sext i8 %52 to i32
  %54 = icmp ne i32 %53, 71
  %55 = zext i1 %54 to i32
  %56 = load i32, ptr %9, align 4, !tbaa !29
  %57 = or i32 %56, %55
  store i32 %57, ptr %9, align 4, !tbaa !29
  %58 = load ptr, ptr %5, align 8, !tbaa !4
  %59 = getelementptr inbounds nuw %struct.signature_check, ptr %58, i32 0, i32 11
  %60 = load i32, ptr %59, align 8, !tbaa !23
  %61 = load i32, ptr @configured_min_trust_level, align 4, !tbaa !29
  %62 = icmp ult i32 %60, %61
  %63 = zext i1 %62 to i32
  %64 = load i32, ptr %9, align 4, !tbaa !29
  %65 = or i32 %64, %63
  store i32 %65, ptr %9, align 4, !tbaa !29
  %66 = load i32, ptr %9, align 4, !tbaa !29
  %67 = icmp ne i32 %66, 0
  %68 = xor i1 %67, true
  %69 = xor i1 %68, true
  %70 = zext i1 %69 to i32
  store i32 %70, ptr %4, align 4
  store i32 1, ptr %10, align 4
  br label %71

71:                                               ; preds = %49, %43, %26
  call void @llvm.lifetime.end.p0(i64 4, ptr %9) #8
  call void @llvm.lifetime.end.p0(i64 8, ptr %8) #8
  %72 = load i32, ptr %4, align 4
  ret i32 %72
}