; Function Attrs: nounwind uwtable
define dso_local range(i32 0, 2) i32 @check_signature(ptr noundef initializes((48, 49), (88, 92)) %0, ptr noundef %1, i64 noundef %2) local_unnamed_addr #2 {
  %4 = alloca i64, align 8
  %5 = alloca %struct.ident_split, align 8
  %.b.i = load i1, ptr @gpg_interface_lazy_init.done, align 4
  br i1 %.b.i, label %gpg_interface_lazy_init.exit, label %6

6:                                                ; preds = %3
  store i1 true, ptr @gpg_interface_lazy_init.done, align 4
  %7 = load ptr, ptr @the_repository, align 8, !tbaa !18
  tail call void @repo_config(ptr noundef %7, ptr noundef nonnull @git_gpg_config, ptr noundef null) #15
  br label %gpg_interface_lazy_init.exit

gpg_interface_lazy_init.exit:                     ; preds = %3, %6
  %8 = getelementptr inbounds nuw i8, ptr %0, i64 48
  store i8 78, ptr %8, align 8, !tbaa !20
  %9 = getelementptr inbounds nuw i8, ptr %0, i64 88
  store i32 0, ptr %9, align 8, !tbaa !21
  br label %.preheader.i

.preheader.i:                                     ; preds = %._crit_edge.i, %gpg_interface_lazy_init.exit
  %.01018.i = phi i64 [ 0, %gpg_interface_lazy_init.exit ], [ %19, %._crit_edge.i ]
  %10 = getelementptr inbounds nuw [3 x %struct.gpg_format], ptr @gpg_format, i64 0, i64 %.01018.i, i32 3
  %11 = load ptr, ptr %10, align 8, !tbaa !22
  %12 = load ptr, ptr %11, align 8, !tbaa !25
  %.not16.i = icmp eq ptr %12, null
  br i1 %.not16.i, label %._crit_edge.i, label %.lr.ph.i

13:                                               ; preds = %.lr.ph.i
  %indvars.iv.next.i = add nuw nsw i64 %indvars.iv.i, 1
  %14 = load ptr, ptr %10, align 8, !tbaa !22
  %15 = getelementptr inbounds nuw ptr, ptr %14, i64 %indvars.iv.next.i
  %16 = load ptr, ptr %15, align 8, !tbaa !25
  %.not.i = icmp eq ptr %16, null
  br i1 %.not.i, label %._crit_edge.i, label %.lr.ph.i, !llvm.loop !26

.lr.ph.i:                                         ; preds = %.preheader.i, %13
  %indvars.iv.i = phi i64 [ %indvars.iv.next.i, %13 ], [ 0, %.preheader.i ]
  %17 = phi ptr [ %16, %13 ], [ %12, %.preheader.i ]
  %18 = tail call i32 @starts_with(ptr noundef %1, ptr noundef nonnull %17) #15
  %.not14.i = icmp eq i32 %18, 0
  br i1 %.not14.i, label %13, label %22

._crit_edge.i:                                    ; preds = %13, %.preheader.i
  %19 = add nuw nsw i64 %.01018.i, 1
  %exitcond.i = icmp eq i64 %19, 3
  br i1 %exitcond.i, label %20, label %.preheader.i, !llvm.loop !28

20:                                               ; preds = %._crit_edge.i
  %21 = tail call fastcc ptr @_(ptr noundef nonnull @.str)
  tail call void (ptr, ...) @die(ptr noundef %21, ptr noundef %1) #16
  unreachable

22:                                               ; preds = %.lr.ph.i
  %23 = getelementptr inbounds nuw %struct.gpg_format, ptr @gpg_format, i64 %.01018.i
  call void @llvm.lifetime.start.p0(i64 8, ptr nonnull %4) #15
  call void @llvm.lifetime.start.p0(i64 64, ptr nonnull %5) #15
  %24 = getelementptr inbounds nuw i8, ptr %0, i64 16
  %25 = load i32, ptr %24, align 8, !tbaa !29
  switch i32 %25, label %27 [
    i32 1, label %28
    i32 2, label %26
    i32 0, label %49
    i32 3, label %49
  ]

26:                                               ; preds = %22
  br label %28

27:                                               ; preds = %22
  tail call void (ptr, i32, ptr, ...) @BUG_fl(ptr noundef nonnull @.str.1, i32 noundef 632, ptr noundef nonnull @.str.95) #16
  unreachable

28:                                               ; preds = %26, %22
  %.0.i = phi ptr [ @.str.94, %26 ], [ @.str.93, %22 ]
  %29 = load ptr, ptr %0, align 8, !tbaa !4
  %30 = call ptr @find_commit_header(ptr noundef %29, ptr noundef nonnull %.0.i, ptr noundef nonnull %4) #15
  %31 = icmp ne ptr %30, null
  %32 = load i64, ptr %4, align 8
  %33 = icmp ne i64 %32, 0
  %or.cond.i = select i1 %31, i1 %33, i1 false
  br i1 %or.cond.i, label %34, label %parse_payload_metadata.exit

34:                                               ; preds = %28
  %35 = trunc i64 %32 to i32
  %36 = call i32 @split_ident_line(ptr noundef nonnull %5, ptr noundef nonnull %30, i32 noundef %35) #15
  %.not.i23 = icmp eq i32 %36, 0
  br i1 %.not.i23, label %37, label %parse_payload_metadata.exit

37:                                               ; preds = %34
  %38 = getelementptr inbounds nuw i8, ptr %0, i64 24
  %39 = load i64, ptr %38, align 8, !tbaa !30
  %40 = icmp eq i64 %39, 0
  %41 = getelementptr inbounds nuw i8, ptr %5, i64 32
  %42 = load ptr, ptr %41, align 8
  %43 = icmp ne ptr %42, null
  %or.cond4.i = select i1 %40, i1 %43, i1 false
  %44 = getelementptr inbounds nuw i8, ptr %5, i64 40
  %45 = load ptr, ptr %44, align 8
  %46 = icmp ne ptr %45, null
  %or.cond7.i = select i1 %or.cond4.i, i1 %46, i1 false
  br i1 %or.cond7.i, label %47, label %49

47:                                               ; preds = %37
  %48 = call i64 @strtoumax(ptr noundef nonnull %42, ptr noundef null, i32 noundef 10) #15
  store i64 %48, ptr %38, align 8, !tbaa !30
  br label %49

parse_payload_metadata.exit:                      ; preds = %28, %34
  call void @llvm.lifetime.end.p0(i64 64, ptr nonnull %5) #15
  call void @llvm.lifetime.end.p0(i64 8, ptr nonnull %4) #15
  br label %67

49:                                               ; preds = %22, %22, %47, %37
  call void @llvm.lifetime.end.p0(i64 64, ptr nonnull %5) #15
  call void @llvm.lifetime.end.p0(i64 8, ptr nonnull %4) #15
  %50 = getelementptr inbounds nuw i8, ptr %23, i64 32
  %51 = load ptr, ptr %50, align 16, !tbaa !31
  %52 = call i32 %51(ptr noundef nonnull %0, ptr noundef nonnull %23, ptr noundef %1, i64 noundef %2) #15
  %.not21 = icmp eq i32 %52, 0
  br i1 %.not21, label %56, label %53

53:                                               ; preds = %49
  %54 = getelementptr inbounds nuw i8, ptr %0, i64 32
  %55 = load ptr, ptr %54, align 8, !tbaa !12
  %.not22 = icmp eq ptr %55, null
  br i1 %.not22, label %67, label %56

56:                                               ; preds = %53, %49
  %57 = load i8, ptr %8, align 8, !tbaa !20
  %58 = icmp ne i8 %57, 71
  %59 = load i32, ptr %9, align 8, !tbaa !21
  %60 = load i32, ptr @configured_min_trust_level, align 4, !tbaa !32
  %61 = icmp ult i32 %59, %60
  %62 = or i1 %58, %61
  %63 = zext i1 %62 to i32
  %64 = or i32 %52, %63
  %65 = icmp ne i32 %64, 0
  %66 = zext i1 %65 to i32
  br label %67

67:                                               ; preds = %parse_payload_metadata.exit, %53, %56
  %.0 = phi i32 [ %66, %56 ], [ 1, %parse_payload_metadata.exit ], [ 1, %53 ]
  ret i32 %.0
}